; Function Attrs: mustprogress nounwind uwtable
define dso_local void @_ZN4llvm20CallGraphWrapperPassD2Ev(ptr noundef nonnull align 8 dereferenceable(40) initializes((0, 8)) %0) unnamed_addr #0 align 2 {
  store ptr getelementptr inbounds nuw inrange(-16, 144) (i8, ptr @_ZTVN4llvm20CallGraphWrapperPassE, i64 16), ptr %0, align 8
  %2 = getelementptr inbounds nuw i8, ptr %0, i64 32
  %3 = load ptr, ptr %2, align 8
  %.not.i = icmp eq ptr %3, null
  br i1 %.not.i, label %_ZNSt10unique_ptrIN4llvm9CallGraphESt14default_deleteIS1_EED2Ev.exit, label %_ZNKSt14default_deleteIN4llvm9CallGraphEEclEPS1_.exit.i

_ZNKSt14default_deleteIN4llvm9CallGraphEEclEPS1_.exit.i: ; preds = %1
  tail call void @_ZN4llvm9CallGraphD1Ev(ptr noundef nonnull align 8 dereferenceable(72) %3) #19
  tail call void @_ZdlPvm(ptr noundef nonnull %3, i64 noundef 72) #21
  br label %_ZNSt10unique_ptrIN4llvm9CallGraphESt14default_deleteIS1_EED2Ev.exit

_ZNSt10unique_ptrIN4llvm9CallGraphESt14default_deleteIS1_EED2Ev.exit: ; preds = %1, %_ZNKSt14default_deleteIN4llvm9CallGraphEEclEPS1_.exit.i
  store ptr null, ptr %2, align 8
  tail call void @_ZN4llvm10ModulePassD2Ev(ptr noundef nonnull align 8 dereferenceable(28) %0) #19
  ret void
}